target datalayout = "e-m:e-p270:32:32-p271:32:32-p272:64:64-i64:64-i128:128-f80:128-n8:16:32:64-S128"
target triple = "x86_64-pc-linux-gnu"

%"class.icu_77::SimpleFilteredSentenceBreakData" = type <{ ptr, %"class.icu_77::LocalPointer", %"class.icu_77::LocalPointer", %"struct.std::atomic", [4 x i8] }>
%"class.icu_77::LocalPointer" = type { %"class.icu_77::LocalPointerBase" }
%"class.icu_77::LocalPointerBase" = type { ptr }
%"struct.std::atomic" = type { %"struct.std::__atomic_base" }
%"struct.std::__atomic_base" = type { i32 }
%"class.icu_77::SimpleFilteredSentenceBreakIterator" = type { %"class.icu_77::BreakIterator", ptr, %"class.icu_77::LocalPointer.0", %"class.icu_77::internal::LocalOpenPointer" }
%"class.icu_77::BreakIterator" = type { %"class.icu_77::UObject", ptr, ptr, ptr }
%"class.icu_77::UObject" = type { ptr }
%"class.icu_77::LocalPointer.0" = type { %"class.icu_77::LocalPointerBase.1" }
%"class.icu_77::LocalPointerBase.1" = type { ptr }
%"class.icu_77::internal::LocalOpenPointer" = type { %"class.icu_77::LocalPointerBase.2" }
%"class.icu_77::LocalPointerBase.2" = type { ptr }

; Function Attrs: mustprogress uwtable
define linkonce_odr void @_ZN6icu_778internal16LocalOpenPointerI5UTextXadL_Z14utext_close_77EEE12adoptInsteadEPS2_(ptr noundef nonnull align 8 dereferenceable(8) %0, ptr noundef %1) #2 comdat align 2 {
  %3 = alloca ptr, align 8
  %4 = alloca ptr, align 8
  store ptr %0, ptr %3, align 8, !tbaa !36
  store ptr %1, ptr %4, align 8, !tbaa !38
  %5 = load ptr, ptr %3, align 8
  %6 = getelementptr inbounds nuw %"class.icu_77::LocalPointerBase.2", ptr %5, i32 0, i32 0
  %7 = load ptr, ptr %6, align 8, !tbaa !43
  %8 = icmp ne ptr %7, null
  br i1 %8, label %9, label %13

9:                                                ; preds = %2
  %10 = getelementptr inbounds nuw %"class.icu_77::LocalPointerBase.2", ptr %5, i32 0, i32 0
  %11 = load ptr, ptr %10, align 8, !tbaa !43
  %12 = call noundef ptr @utext_close_77(ptr noundef %11)
  br label %13

13:                                               ; preds = %9, %2
  %14 = load ptr, ptr %4, align 8, !tbaa !38
  %15 = getelementptr inbounds nuw %"class.icu_77::LocalPointerBase.2", ptr %5, i32 0, i32 0
  store ptr %14, ptr %15, align 8, !tbaa !43
  ret void
}

; Function Attrs: mustprogress nounwind uwtable
define linkonce_odr noundef ptr @_ZN6icu_7716LocalPointerBaseI5UTextE6orphanEv(ptr noundef nonnull align 8 dereferenceable(8) %0) #1 comdat align 2 {
  %2 = alloca ptr, align 8
  %3 = alloca ptr, align 8
  store ptr %0, ptr %2, align 8, !tbaa !44
  %4 = load ptr, ptr %2, align 8
  call void @llvm.lifetime.start.p0(i64 8, ptr %3) #13
  %5 = getelementptr inbounds nuw %"class.icu_77::LocalPointerBase.2", ptr %4, i32 0, i32 0
  %6 = load ptr, ptr %5, align 8, !tbaa !43
  store ptr %6, ptr %3, align 8, !tbaa !38
  %7 = getelementptr inbounds nuw %"class.icu_77::LocalPointerBase.2", ptr %4, i32 0, i32 0
  store ptr null, ptr %7, align 8, !tbaa !43
  %8 = load ptr, ptr %3, align 8, !tbaa !38
  call void @llvm.lifetime.end.p0(i64 8, ptr %3) #13
  ret ptr %8
}

; Function Attrs: mustprogress nounwind uwtable
define linkonce_odr noundef signext i8 @_ZNK6icu_7716LocalPointerBaseINS_10UCharsTrieEE7isValidEv(ptr noundef nonnull align 8 dereferenceable(8) %0) #1 comdat align 2 {
  %2 = alloca ptr, align 8
  store ptr %0, ptr %2, align 8, !tbaa !113
  %3 = load ptr, ptr %2, align 8
  %4 = getelementptr inbounds nuw %"class.icu_77::LocalPointerBase", ptr %3, i32 0, i32 0
  %5 = load ptr, ptr %4, align 8, !tbaa !14
  %6 = icmp ne ptr %5, null
  %7 = zext i1 %6 to i8
  ret i8 %7
}

; Function Attrs: inlinehint mustprogress nounwind uwtable
define internal noundef signext i8 @_ZL9U_FAILURE10UErrorCode(i32 noundef %0) #5 {
  %2 = alloca i32, align 4
  store i32 %0, ptr %2, align 4, !tbaa !41
  %3 = load i32, ptr %2, align 4, !tbaa !41
  %4 = icmp sgt i32 %3, 0
  %5 = zext i1 %4 to i8
  ret i8 %5
}

; Function Attrs: mustprogress uwtable
define void @_ZN6icu_7735SimpleFilteredSentenceBreakIterator10resetStateER10UErrorCode(ptr noundef nonnull align 8 dereferenceable(56) %0, ptr noundef nonnull align 4 dereferenceable(4) %1) #2 align 2 {
  %3 = alloca ptr, align 8
  %4 = alloca ptr, align 8
  store ptr %0, ptr %3, align 8, !tbaa !17
  store ptr %1, ptr %4, align 8, !tbaa !40
  %5 = load ptr, ptr %3, align 8
  %6 = getelementptr inbounds nuw %"class.icu_77::SimpleFilteredSentenceBreakIterator", ptr %5, i32 0, i32 3
  %7 = getelementptr inbounds nuw %"class.icu_77::SimpleFilteredSentenceBreakIterator", ptr %5, i32 0, i32 2
  %8 = call noundef ptr @_ZNK6icu_7716LocalPointerBaseINS_13BreakIteratorEEptEv(ptr noundef nonnull align 8 dereferenceable(8) %7)
  %9 = getelementptr inbounds nuw %"class.icu_77::SimpleFilteredSentenceBreakIterator", ptr %5, i32 0, i32 3
  %10 = call noundef ptr @_ZN6icu_7716LocalPointerBaseI5UTextE6orphanEv(ptr noundef nonnull align 8 dereferenceable(8) %9)
  %11 = load ptr, ptr %4, align 8, !tbaa !40
  %12 = load ptr, ptr %8, align 8, !tbaa !10
  %13 = getelementptr inbounds ptr, ptr %12, i64 6
  %14 = load ptr, ptr %13, align 8
  %15 = call noundef ptr %14(ptr noundef nonnull align 8 dereferenceable(32) %8, ptr noundef %10, ptr noundef nonnull align 4 dereferenceable(4) %11)
  call void @_ZN6icu_778internal16LocalOpenPointerI5UTextXadL_Z14utext_close_77EEE12adoptInsteadEPS2_(ptr noundef nonnull align 8 dereferenceable(8) %6, ptr noundef %15)
  ret void
}

; Function Attrs: mustprogress nounwind uwtable
define linkonce_odr noundef zeroext i1 @_ZNK6icu_7731SimpleFilteredSentenceBreakData16hasBackwardsTrieEv(ptr noundef nonnull align 8 dereferenceable(28) %0) #1 comdat align 2 {
  %2 = alloca ptr, align 8
  store ptr %0, ptr %2, align 8, !tbaa !8
  %3 = load ptr, ptr %2, align 8
  %4 = getelementptr inbounds nuw %"class.icu_77::SimpleFilteredSentenceBreakData", ptr %3, i32 0, i32 2
  %5 = call noundef signext i8 @_ZNK6icu_7716LocalPointerBaseINS_10UCharsTrieEE7isValidEv(ptr noundef nonnull align 8 dereferenceable(8) %4)
  %6 = icmp ne i8 %5, 0
  ret i1 %6
}

; Function Attrs: mustprogress uwtable
define noundef i32 @_ZN6icu_7735SimpleFilteredSentenceBreakIterator12internalPrevEi(ptr noundef nonnull align 8 dereferenceable(56) %0, i32 noundef %1) #2 align 2 {
  %3 = alloca i32, align 4
  %4 = alloca ptr, align 8
  %5 = alloca i32, align 4
  %6 = alloca i32, align 4
  %7 = alloca i32, align 4
  %8 = alloca i32, align 4
  store ptr %0, ptr %4, align 8, !tbaa !17
  store i32 %1, ptr %5, align 4, !tbaa !46
  %9 = load ptr, ptr %4, align 8
  %10 = load i32, ptr %5, align 4, !tbaa !46
  %11 = icmp eq i32 %10, 0
  br i1 %11, label %19, label %12

12:                                               ; preds = %2
  %13 = load i32, ptr %5, align 4, !tbaa !46
  %14 = icmp eq i32 %13, -1
  br i1 %14, label %19, label %15

15:                                               ; preds = %12
  %16 = getelementptr inbounds nuw %"class.icu_77::SimpleFilteredSentenceBreakIterator", ptr %9, i32 0, i32 1
  %17 = load ptr, ptr %16, align 8, !tbaa !19
  %18 = call noundef zeroext i1 @_ZNK6icu_7731SimpleFilteredSentenceBreakData16hasBackwardsTrieEv(ptr noundef nonnull align 8 dereferenceable(28) %17)
  br i1 %18, label %21, label %19

19:                                               ; preds = %15, %12, %2
  %20 = load i32, ptr %5, align 4, !tbaa !46
  store i32 %20, ptr %3, align 4
  br label %54

21:                                               ; preds = %15
  call void @llvm.lifetime.start.p0(i64 4, ptr %6) #13
  store i32 0, ptr %6, align 4, !tbaa !41
  call void @_ZN6icu_7735SimpleFilteredSentenceBreakIterator10resetStateER10UErrorCode(ptr noundef nonnull align 8 dereferenceable(56) %9, ptr noundef nonnull align 4 dereferenceable(4) %6)
  %22 = load i32, ptr %6, align 4, !tbaa !41
  %23 = call noundef signext i8 @_ZL9U_FAILURE10UErrorCode(i32 noundef %22)
  %24 = icmp ne i8 %23, 0
  br i1 %24, label %25, label %26

25:                                               ; preds = %21
  store i32 -1, ptr %3, align 4
  store i32 1, ptr %7, align 4
  br label %53

26:                                               ; preds = %21
  br label %27

27:                                               ; preds = %49, %26
  %28 = load i32, ptr %5, align 4, !tbaa !46
  %29 = icmp ne i32 %28, -1
  br i1 %29, label %30, label %33

30:                                               ; preds = %27
  %31 = load i32, ptr %5, align 4, !tbaa !46
  %32 = icmp ne i32 %31, 0
  br label %33

33:                                               ; preds = %30, %27
  %34 = phi i1 [ false, %27 ], [ %32, %30 ]
  br i1 %34, label %35, label %51

35:                                               ; preds = %33
  call void @llvm.lifetime.start.p0(i64 4, ptr %8) #13
  %36 = load i32, ptr %5, align 4, !tbaa !46
  %37 = call noundef i32 @_ZN6icu_7735SimpleFilteredSentenceBreakIterator16breakExceptionAtEi(ptr noundef nonnull align 8 dereferenceable(56) %9, i32 noundef %36)
  store i32 %37, ptr %8, align 4, !tbaa !64
  %38 = load i32, ptr %8, align 4, !tbaa !64
  switch i32 %38, label %46 [
    i32 1, label %39
    i32 0, label %47
  ]

39:                                               ; preds = %35
  %40 = getelementptr inbounds nuw %"class.icu_77::SimpleFilteredSentenceBreakIterator", ptr %9, i32 0, i32 2
  %41 = call noundef ptr @_ZNK6icu_7716LocalPointerBaseINS_13BreakIteratorEEptEv(ptr noundef nonnull align 8 dereferenceable(8) %40)
  %42 = load ptr, ptr %41, align 8, !tbaa !10
  %43 = getelementptr inbounds ptr, ptr %42, i64 12
  %44 = load ptr, ptr %43, align 8
  %45 = call noundef i32 %44(ptr noundef nonnull align 8 dereferenceable(32) %41)
  store i32 %45, ptr %5, align 4, !tbaa !46
  store i32 2, ptr %7, align 4
  br label %49, !llvm.loop !67

46:                                               ; preds = %35
  br label %47

47:                                               ; preds = %35, %46
  %48 = load i32, ptr %5, align 4, !tbaa !46
  store i32 %48, ptr %3, align 4
  store i32 1, ptr %7, align 4
  br label %49

49:                                               ; preds = %47, %39
  call void @llvm.lifetime.end.p0(i64 4, ptr %8) #13
  %50 = load i32, ptr %7, align 4
  switch i32 %50, label %53 [
    i32 2, label %27
  ]

51:                                               ; preds = %33
  %52 = load i32, ptr %5, align 4, !tbaa !46
  store i32 %52, ptr %3, align 4
  store i32 1, ptr %7, align 4
  br label %53

53:                                               ; preds = %51, %49, %25
  call void @llvm.lifetime.end.p0(i64 4, ptr %6) #13
  br label %54

54:                                               ; preds = %53, %19
  %55 = load i32, ptr %3, align 4
  ret i32 %55
}

; Function Attrs: mustprogress nounwind uwtable
define linkonce_odr noundef ptr @_ZNK6icu_7716LocalPointerBaseINS_13BreakIteratorEEptEv(ptr noundef nonnull align 8 dereferenceable(8) %0) #1 comdat align 2 {
  %2 = alloca ptr, align 8
  store ptr %0, ptr %2, align 8, !tbaa !30
  %3 = load ptr, ptr %2, align 8
  %4 = getelementptr inbounds nuw %"class.icu_77::LocalPointerBase.1", ptr %3, i32 0, i32 0
  %5 = load ptr, ptr %4, align 8, !tbaa !32
  ret ptr %5
}

; Function Attrs: mustprogress uwtable
define noundef i32 @_ZN6icu_7735SimpleFilteredSentenceBreakIterator9precedingEi(ptr noundef nonnull align 8 dereferenceable(56) %0, i32 noundef %1) unnamed_addr #2 align 2 {
  %3 = alloca ptr, align 8
  %4 = alloca i32, align 4
  store ptr %0, ptr %3, align 8, !tbaa !17
  store i32 %1, ptr %4, align 4, !tbaa !46
  %5 = load ptr, ptr %3, align 8
  %6 = getelementptr inbounds nuw %"class.icu_77::SimpleFilteredSentenceBreakIterator", ptr %5, i32 0, i32 2
  %7 = call noundef ptr @_ZNK6icu_7716LocalPointerBaseINS_13BreakIteratorEEptEv(ptr noundef nonnull align 8 dereferenceable(8) %6)
  %8 = load i32, ptr %4, align 4, !tbaa !46
  %9 = load ptr, ptr %7, align 8, !tbaa !10
  %10 = getelementptr inbounds ptr, ptr %9, i64 16
  %11 = load ptr, ptr %10, align 8
  %12 = call noundef i32 %11(ptr noundef nonnull align 8 dereferenceable(32) %7, i32 noundef %8)
  %13 = call noundef i32 @_ZN6icu_7735SimpleFilteredSentenceBreakIterator12internalPrevEi(ptr noundef nonnull align 8 dereferenceable(56) %5, i32 noundef %12)
  ret i32 %13
}