; Function Attrs: mustprogress uwtable
define noundef i32 @_ZN6icu_7735SimpleFilteredSentenceBreakIterator9precedingEi(ptr noundef nonnull align 8 captures(none) dereferenceable(56) %0, i32 noundef %1) unnamed_addr #2 align 2 {
  %3 = alloca i32, align 4
  %4 = getelementptr inbounds nuw i8, ptr %0, i64 40
  %5 = load ptr, ptr %4, align 8, !tbaa !23
  %6 = load ptr, ptr %5, align 8, !tbaa !3
  %7 = getelementptr inbounds nuw i8, ptr %6, i64 128
  %8 = load ptr, ptr %7, align 8
  %9 = tail call noundef i32 %8(ptr noundef nonnull align 8 dereferenceable(32) %5, i32 noundef %1)
  %10 = add i32 %9, 1
  %or.cond.i = icmp ult i32 %10, 2
  br i1 %or.cond.i, label %_ZN6icu_7735SimpleFilteredSentenceBreakIterator12internalPrevEi.exit, label %11

11:                                               ; preds = %2
  %12 = getelementptr inbounds nuw i8, ptr %0, i64 32
  %13 = load ptr, ptr %12, align 8, !tbaa !11
  %14 = getelementptr inbounds nuw i8, ptr %13, i64 16
  %15 = load ptr, ptr %14, align 8, !tbaa !6
  %.not19.i = icmp eq ptr %15, null
  br i1 %.not19.i, label %_ZN6icu_7735SimpleFilteredSentenceBreakIterator12internalPrevEi.exit, label %16

16:                                               ; preds = %11
  call void @llvm.lifetime.start.p0(i64 4, ptr nonnull %3) #14
  store i32 0, ptr %3, align 4, !tbaa !28
  %17 = getelementptr inbounds nuw i8, ptr %0, i64 48
  %18 = load ptr, ptr %4, align 8, !tbaa !23
  %19 = load ptr, ptr %17, align 8, !tbaa !24
  store ptr null, ptr %17, align 8, !tbaa !24
  %20 = load ptr, ptr %18, align 8, !tbaa !3
  %21 = getelementptr inbounds nuw i8, ptr %20, i64 48
  %22 = load ptr, ptr %21, align 8
  %23 = call noundef ptr %22(ptr noundef nonnull align 8 dereferenceable(32) %18, ptr noundef %19, ptr noundef nonnull align 4 dereferenceable(4) %3)
  %24 = load ptr, ptr %17, align 8, !tbaa !24
  %.not.i.i.i = icmp eq ptr %24, null
  br i1 %.not.i.i.i, label %_ZN6icu_7735SimpleFilteredSentenceBreakIterator10resetStateER10UErrorCode.exit.i, label %25

25:                                               ; preds = %16
  %26 = call noundef ptr @utext_close_77(ptr noundef nonnull %24)
  br label %_ZN6icu_7735SimpleFilteredSentenceBreakIterator10resetStateER10UErrorCode.exit.i

_ZN6icu_7735SimpleFilteredSentenceBreakIterator10resetStateER10UErrorCode.exit.i: ; preds = %25, %16
  store ptr %23, ptr %17, align 8, !tbaa !24
  %27 = load i32, ptr %3, align 4, !tbaa !28
  %28 = icmp slt i32 %27, 1
  br i1 %28, label %.lr.ph.i, label %.thread.i

.lr.ph.i:                                         ; preds = %_ZN6icu_7735SimpleFilteredSentenceBreakIterator10resetStateER10UErrorCode.exit.i, %30
  %.01420.i = phi i32 [ %35, %30 ], [ %9, %_ZN6icu_7735SimpleFilteredSentenceBreakIterator10resetStateER10UErrorCode.exit.i ]
  %29 = call noundef i32 @_ZN6icu_7735SimpleFilteredSentenceBreakIterator16breakExceptionAtEi(ptr noundef nonnull align 8 dereferenceable(56) %0, i32 noundef %.01420.i)
  %cond2.not.not.i = icmp eq i32 %29, 0
  br i1 %cond2.not.not.i, label %.thread.i, label %30

30:                                               ; preds = %.lr.ph.i
  %31 = load ptr, ptr %4, align 8, !tbaa !23
  %32 = load ptr, ptr %31, align 8, !tbaa !3
  %33 = getelementptr inbounds nuw i8, ptr %32, i64 96
  %34 = load ptr, ptr %33, align 8
  %35 = call noundef i32 %34(ptr noundef nonnull align 8 dereferenceable(32) %31)
  %36 = add i32 %35, -1
  %37 = icmp ult i32 %36, -2
  br i1 %37, label %.lr.ph.i, label %.thread.i

.thread.i:                                        ; preds = %30, %.lr.ph.i, %_ZN6icu_7735SimpleFilteredSentenceBreakIterator10resetStateER10UErrorCode.exit.i
  %.1.i = phi i32 [ -1, %_ZN6icu_7735SimpleFilteredSentenceBreakIterator10resetStateER10UErrorCode.exit.i ], [ %.01420.i, %.lr.ph.i ], [ %35, %30 ]
  call void @llvm.lifetime.end.p0(i64 4, ptr nonnull %3) #14
  br label %_ZN6icu_7735SimpleFilteredSentenceBreakIterator12internalPrevEi.exit

_ZN6icu_7735SimpleFilteredSentenceBreakIterator12internalPrevEi.exit: ; preds = %2, %11, %.thread.i
  %.0.i = phi i32 [ %.1.i, %.thread.i ], [ %9, %11 ], [ %9, %2 ]
  ret i32 %.0.i
}